target datalayout = "e-m:e-p270:32:32-p271:32:32-p272:64:64-i64:64-i128:128-f80:128-n8:16:32:64-S128"
target triple = "x86_64-pc-linux-gnu"

%struct.H5T_t = type { %struct.H5O_shared_t, ptr, %struct.H5O_loc_t, %struct.H5G_name_t, ptr }
%struct.H5O_shared_t = type { i32, ptr, i32, %union.anon }
%union.anon = type { %struct.H5O_mesg_loc_t }
%struct.H5O_mesg_loc_t = type { i32, i64 }
%struct.H5O_loc_t = type { ptr, i64, i8 }
%struct.H5G_name_t = type { ptr, ptr, i32 }

@H5_libterm_g = external global i8, align 1
@.str = private unnamed_addr constant [103 x i8] c"generated/home/dtcxzyw/WorkSpace/Projects/compilers/llvm-opt-benchmark/bench/hdf5/hdf5/src/H5Tcommit.c\00", align 1
@H5T_init_g = external global i8, align 1
@H5E_DATATYPE_g = external global i64, align 8
@H5E_BADTYPE_g = external global i64, align 8
@H5P_LST_DATATYPE_CREATE_ID_g = external global i64, align 8
@H5E_CANTGET_g = external global i64, align 8
@H5E_CANTDEC_g = external global i64, align 8
@.str.56 = private unnamed_addr constant [41 x i8] c"can't get default creation property list\00", align 1
@.str.57 = private unnamed_addr constant [42 x i8] c"unable to copy the creation property list\00", align 1
@.str.58 = private unnamed_addr constant [31 x i8] c"can't get object creation info\00", align 1
@__func__.H5T__get_create_plist = private unnamed_addr constant [22 x i8] c"H5T__get_create_plist\00", align 1
@.str.62 = private unnamed_addr constant [24 x i8] c"can't get property list\00", align 1
@.str.63 = private unnamed_addr constant [33 x i8] c"unable to close temporary object\00", align 1

; Function Attrs: nounwind uwtable
define i64 @H5T__get_create_plist(ptr noundef %0) #0 {
  %2 = alloca ptr, align 8
  %3 = alloca ptr, align 8
  %4 = alloca ptr, align 8
  %5 = alloca i64, align 8
  %6 = alloca i64, align 8
  %7 = alloca i8, align 1
  store ptr %0, ptr %2, align 8, !tbaa !21
  call void @llvm.lifetime.start.p0(i64 8, ptr %3) #7
  call void @llvm.lifetime.start.p0(i64 8, ptr %4) #7
  call void @llvm.lifetime.start.p0(i64 8, ptr %5) #7
  store i64 -1, ptr %5, align 8, !tbaa !3
  call void @llvm.lifetime.start.p0(i64 8, ptr %6) #7
  store i64 -1, ptr %6, align 8, !tbaa !3
  call void @llvm.lifetime.start.p0(i64 1, ptr %7) #7
  store i8 0, ptr %7, align 1, !tbaa !12
  %8 = load i8, ptr @H5T_init_g, align 1, !tbaa !12, !range !14, !noundef !15
  %9 = trunc i8 %8 to i1
  br i1 %9, label %14, label %10

10:                                               ; preds = %1
  %11 = load i8, ptr @H5_libterm_g, align 1, !tbaa !12, !range !14, !noundef !15
  %12 = trunc i8 %11 to i1
  %13 = xor i1 %12, true
  br label %14

14:                                               ; preds = %10, %1
  %15 = phi i1 [ true, %1 ], [ %13, %10 ]
  %16 = xor i1 %15, true
  %17 = xor i1 %16, true
  %18 = zext i1 %17 to i32
  %19 = sext i32 %18 to i64
  %20 = call i64 @llvm.expect.i64(i64 %19, i64 1)
  %21 = icmp ne i64 %20, 0
  br i1 %21, label %22, label %147

22:                                               ; preds = %14
  %23 = load i64, ptr @H5P_LST_DATATYPE_CREATE_ID_g, align 8, !tbaa !3
  %24 = call ptr @H5I_object(i64 noundef %23)
  store ptr %24, ptr %3, align 8, !tbaa !59
  %25 = icmp eq ptr null, %24
  br i1 %25, label %26, label %45

26:                                               ; preds = %22
  br label %27

27:                                               ; preds = %26
  br label %28

28:                                               ; preds = %27
  br label %29

29:                                               ; preds = %28
  %30 = load i64, ptr @H5E_DATATYPE_g, align 8, !tbaa !3
  %31 = load i64, ptr @H5E_BADTYPE_g, align 8, !tbaa !3
  %32 = call i32 (ptr, ptr, i32, i64, i64, ptr, ...) @H5E_printf_stack(ptr noundef @.str, ptr noundef @__func__.H5T__get_create_plist, i32 noundef 924, i64 noundef %30, i64 noundef %31, ptr noundef @.str.56)
  br label %33

33:                                               ; preds = %29
  br label %34

34:                                               ; preds = %33
  store i8 1, ptr %7, align 1, !tbaa !12
  %35 = load i8, ptr %7, align 1, !tbaa !12, !range !14, !noundef !15
  %36 = trunc i8 %35 to i1
  %37 = zext i1 %36 to i8
  store i8 %37, ptr %7, align 1, !tbaa !12
  br label %38

38:                                               ; preds = %34
  br label %39

39:                                               ; preds = %38
  br label %40

40:                                               ; preds = %39
  store i64 -1, ptr %6, align 8, !tbaa !3
  br label %118

41:                                               ; No predecessors!
  br label %42

42:                                               ; preds = %41
  br label %43

43:                                               ; preds = %42
  br label %44

44:                                               ; preds = %43
  br label %45

45:                                               ; preds = %44, %22
  %46 = load ptr, ptr %3, align 8, !tbaa !59
  %47 = call i64 @H5P_copy_plist(ptr noundef %46, i1 noundef zeroext true)
  store i64 %47, ptr %5, align 8, !tbaa !3
  %48 = icmp slt i64 %47, 0
  br i1 %48, label %49, label %68

49:                                               ; preds = %45
  br label %50

50:                                               ; preds = %49
  br label %51

51:                                               ; preds = %50
  br label %52

52:                                               ; preds = %51
  %53 = load i64, ptr @H5E_DATATYPE_g, align 8, !tbaa !3
  %54 = load i64, ptr @H5E_CANTGET_g, align 8, !tbaa !3
  %55 = call i32 (ptr, ptr, i32, i64, i64, ptr, ...) @H5E_printf_stack(ptr noundef @.str, ptr noundef @__func__.H5T__get_create_plist, i32 noundef 926, i64 noundef %53, i64 noundef %54, ptr noundef @.str.57)
  br label %56

56:                                               ; preds = %52
  br label %57

57:                                               ; preds = %56
  store i8 1, ptr %7, align 1, !tbaa !12
  %58 = load i8, ptr %7, align 1, !tbaa !12, !range !14, !noundef !15
  %59 = trunc i8 %58 to i1
  %60 = zext i1 %59 to i8
  store i8 %60, ptr %7, align 1, !tbaa !12
  br label %61

61:                                               ; preds = %57
  br label %62

62:                                               ; preds = %61
  br label %63

63:                                               ; preds = %62
  store i64 -1, ptr %6, align 8, !tbaa !3
  br label %118

64:                                               ; No predecessors!
  br label %65

65:                                               ; preds = %64
  br label %66

66:                                               ; preds = %65
  br label %67

67:                                               ; preds = %66
  br label %68

68:                                               ; preds = %67, %45
  %69 = load i64, ptr %5, align 8, !tbaa !3
  %70 = call ptr @H5I_object(i64 noundef %69)
  store ptr %70, ptr %4, align 8, !tbaa !59
  %71 = icmp eq ptr null, %70
  br i1 %71, label %72, label %91

72:                                               ; preds = %68
  br label %73

73:                                               ; preds = %72
  br label %74

74:                                               ; preds = %73
  br label %75

75:                                               ; preds = %74
  %76 = load i64, ptr @H5E_DATATYPE_g, align 8, !tbaa !3
  %77 = load i64, ptr @H5E_BADTYPE_g, align 8, !tbaa !3
  %78 = call i32 (ptr, ptr, i32, i64, i64, ptr, ...) @H5E_printf_stack(ptr noundef @.str, ptr noundef @__func__.H5T__get_create_plist, i32 noundef 930, i64 noundef %76, i64 noundef %77, ptr noundef @.str.62)
  br label %79

79:                                               ; preds = %75
  br label %80

80:                                               ; preds = %79
  store i8 1, ptr %7, align 1, !tbaa !12
  %81 = load i8, ptr %7, align 1, !tbaa !12, !range !14, !noundef !15
  %82 = trunc i8 %81 to i1
  %83 = zext i1 %82 to i8
  store i8 %83, ptr %7, align 1, !tbaa !12
  br label %84

84:                                               ; preds = %80
  br label %85

85:                                               ; preds = %84
  br label %86

86:                                               ; preds = %85
  store i64 -1, ptr %6, align 8, !tbaa !3
  br label %118

87:                                               ; No predecessors!
  br label %88

88:                                               ; preds = %87
  br label %89

89:                                               ; preds = %88
  br label %90

90:                                               ; preds = %89
  br label %91

91:                                               ; preds = %90, %68
  %92 = load ptr, ptr %2, align 8, !tbaa !21
  %93 = getelementptr inbounds nuw %struct.H5T_t, ptr %92, i32 0, i32 2
  %94 = load ptr, ptr %4, align 8, !tbaa !59
  %95 = call i32 @H5O_get_create_plist(ptr noundef %93, ptr noundef %94)
  %96 = icmp slt i32 %95, 0
  br i1 %96, label %97, label %116

97:                                               ; preds = %91
  br label %98

98:                                               ; preds = %97
  br label %99

99:                                               ; preds = %98
  br label %100

100:                                              ; preds = %99
  %101 = load i64, ptr @H5E_DATATYPE_g, align 8, !tbaa !3
  %102 = load i64, ptr @H5E_CANTGET_g, align 8, !tbaa !3
  %103 = call i32 (ptr, ptr, i32, i64, i64, ptr, ...) @H5E_printf_stack(ptr noundef @.str, ptr noundef @__func__.H5T__get_create_plist, i32 noundef 934, i64 noundef %101, i64 noundef %102, ptr noundef @.str.58)
  br label %104

104:                                              ; preds = %100
  br label %105

105:                                              ; preds = %104
  store i8 1, ptr %7, align 1, !tbaa !12
  %106 = load i8, ptr %7, align 1, !tbaa !12, !range !14, !noundef !15
  %107 = trunc i8 %106 to i1
  %108 = zext i1 %107 to i8
  store i8 %108, ptr %7, align 1, !tbaa !12
  br label %109

109:                                              ; preds = %105
  br label %110

110:                                              ; preds = %109
  br label %111

111:                                              ; preds = %110
  store i64 -1, ptr %6, align 8, !tbaa !3
  br label %118

112:                                              ; No predecessors!
  br label %113

113:                                              ; preds = %112
  br label %114

114:                                              ; preds = %113
  br label %115

115:                                              ; preds = %114
  br label %116

116:                                              ; preds = %115, %91
  %117 = load i64, ptr %5, align 8, !tbaa !3
  store i64 %117, ptr %6, align 8, !tbaa !3
  br label %118

118:                                              ; preds = %116, %111, %86, %63, %40
  %119 = load i64, ptr %6, align 8, !tbaa !3
  %120 = icmp slt i64 %119, 0
  br i1 %120, label %121, label %146

121:                                              ; preds = %118
  %122 = load i64, ptr %5, align 8, !tbaa !3
  %123 = icmp sgt i64 %122, 0
  br i1 %123, label %124, label %145

124:                                              ; preds = %121
  %125 = load i64, ptr %5, align 8, !tbaa !3
  %126 = call i32 @H5I_dec_app_ref(i64 noundef %125)
  %127 = icmp slt i32 %126, 0
  br i1 %127, label %128, label %144

128:                                              ; preds = %124
  br label %129

129:                                              ; preds = %128
  br label %130

130:                                              ; preds = %129
  br label %131

131:                                              ; preds = %130
  %132 = load i64, ptr @H5E_DATATYPE_g, align 8, !tbaa !3
  %133 = load i64, ptr @H5E_CANTDEC_g, align 8, !tbaa !3
  %134 = call i32 (ptr, ptr, i32, i64, i64, ptr, ...) @H5E_printf_stack(ptr noundef @.str, ptr noundef @__func__.H5T__get_create_plist, i32 noundef 943, i64 noundef %132, i64 noundef %133, ptr noundef @.str.63)
  br label %135

135:                                              ; preds = %131
  br label %136

136:                                              ; preds = %135
  store i8 1, ptr %7, align 1, !tbaa !12
  %137 = load i8, ptr %7, align 1, !tbaa !12, !range !14, !noundef !15
  %138 = trunc i8 %137 to i1
  %139 = zext i1 %138 to i8
  store i8 %139, ptr %7, align 1, !tbaa !12
  br label %140

140:                                              ; preds = %136
  br label %141

141:                                              ; preds = %140
  store i64 -1, ptr %6, align 8, !tbaa !3
  br label %142

142:                                              ; preds = %141
  br label %143

143:                                              ; preds = %142
  br label %144

144:                                              ; preds = %143, %124
  br label %145

145:                                              ; preds = %144, %121
  br label %146

146:                                              ; preds = %145, %118
  br label %147

147:                                              ; preds = %146, %14
  %148 = load i64, ptr %6, align 8, !tbaa !3
  call void @llvm.lifetime.end.p0(i64 1, ptr %7) #7
  call void @llvm.lifetime.end.p0(i64 8, ptr %6) #7
  call void @llvm.lifetime.end.p0(i64 8, ptr %5) #7
  call void @llvm.lifetime.end.p0(i64 8, ptr %4) #7
  call void @llvm.lifetime.end.p0(i64 8, ptr %3) #7
  ret i64 %148
}