; Function Attrs: nounwind uwtable
define range(i64 -1, -9223372036854775808) i64 @H5T__get_create_plist(ptr noundef %0) local_unnamed_addr #0 {
  %2 = load i8, ptr @H5T_init_g, align 1, !tbaa !3, !range !7, !noundef !8
  %3 = trunc nuw i8 %2 to i1
  %4 = load i8, ptr @H5_libterm_g, align 1, !range !7
  %5 = trunc nuw i8 %4 to i1
  %6 = xor i1 %5, true
  %7 = select i1 %3, i1 true, i1 %6
  br i1 %7, label %8, label %.thread, !prof !9

8:                                                ; preds = %1
  %9 = load i64, ptr @H5P_LST_DATATYPE_CREATE_ID_g, align 8, !tbaa !11
  %10 = tail call ptr @H5I_object(i64 noundef %9) #9
  %11 = icmp eq ptr %10, null
  br i1 %11, label %12, label %16

12:                                               ; preds = %8
  %13 = load i64, ptr @H5E_DATATYPE_g, align 8, !tbaa !11
  %14 = load i64, ptr @H5E_BADTYPE_g, align 8, !tbaa !11
  %15 = tail call i32 (ptr, ptr, i32, i64, i64, ptr, ...) @H5E_printf_stack(ptr noundef nonnull @.str, ptr noundef nonnull @__func__.H5T__get_create_plist, i32 noundef 924, i64 noundef %13, i64 noundef %14, ptr noundef nonnull @.str.56) #9
  br label %.thread

16:                                               ; preds = %8
  %17 = tail call i64 @H5P_copy_plist(ptr noundef nonnull %10, i1 noundef zeroext true) #9
  %18 = icmp slt i64 %17, 0
  br i1 %18, label %19, label %23

19:                                               ; preds = %16
  %20 = load i64, ptr @H5E_DATATYPE_g, align 8, !tbaa !11
  %21 = load i64, ptr @H5E_CANTGET_g, align 8, !tbaa !11
  %22 = tail call i32 (ptr, ptr, i32, i64, i64, ptr, ...) @H5E_printf_stack(ptr noundef nonnull @.str, ptr noundef nonnull @__func__.H5T__get_create_plist, i32 noundef 926, i64 noundef %20, i64 noundef %21, ptr noundef nonnull @.str.57) #9
  br label %.thread

23:                                               ; preds = %16
  %24 = tail call ptr @H5I_object(i64 noundef %17) #9
  %25 = icmp eq ptr %24, null
  br i1 %25, label %26, label %30

26:                                               ; preds = %23
  %27 = load i64, ptr @H5E_DATATYPE_g, align 8, !tbaa !11
  %28 = load i64, ptr @H5E_BADTYPE_g, align 8, !tbaa !11
  %29 = tail call i32 (ptr, ptr, i32, i64, i64, ptr, ...) @H5E_printf_stack(ptr noundef nonnull @.str, ptr noundef nonnull @__func__.H5T__get_create_plist, i32 noundef 930, i64 noundef %27, i64 noundef %28, ptr noundef nonnull @.str.62) #9
  br label %38

30:                                               ; preds = %23
  %31 = getelementptr inbounds nuw i8, ptr %0, i64 48
  %32 = tail call i32 @H5O_get_create_plist(ptr noundef nonnull %31, ptr noundef nonnull %24) #9
  %33 = icmp slt i32 %32, 0
  br i1 %33, label %34, label %.thread

34:                                               ; preds = %30
  %35 = load i64, ptr @H5E_DATATYPE_g, align 8, !tbaa !11
  %36 = load i64, ptr @H5E_CANTGET_g, align 8, !tbaa !11
  %37 = tail call i32 (ptr, ptr, i32, i64, i64, ptr, ...) @H5E_printf_stack(ptr noundef nonnull @.str, ptr noundef nonnull @__func__.H5T__get_create_plist, i32 noundef 934, i64 noundef %35, i64 noundef %36, ptr noundef nonnull @.str.58) #9
  br label %38

38:                                               ; preds = %34, %26
  %.not = icmp eq i64 %17, 0
  br i1 %.not, label %.thread, label %39

39:                                               ; preds = %38
  %40 = tail call i32 @H5I_dec_app_ref(i64 noundef %17) #9
  %41 = icmp slt i32 %40, 0
  br i1 %41, label %42, label %.thread

42:                                               ; preds = %39
  %43 = load i64, ptr @H5E_DATATYPE_g, align 8, !tbaa !11
  %44 = load i64, ptr @H5E_CANTDEC_g, align 8, !tbaa !11
  %45 = tail call i32 (ptr, ptr, i32, i64, i64, ptr, ...) @H5E_printf_stack(ptr noundef nonnull @.str, ptr noundef nonnull @__func__.H5T__get_create_plist, i32 noundef 943, i64 noundef %43, i64 noundef %44, ptr noundef nonnull @.str.63) #9
  br label %.thread

.thread:                                          ; preds = %19, %12, %30, %38, %39, %42, %1
  %.0 = phi i64 [ -1, %42 ], [ -1, %39 ], [ -1, %38 ], [ -1, %1 ], [ %17, %30 ], [ -1, %19 ], [ -1, %12 ]
  ret i64 %.0
}